target datalayout = "e-m:e-p270:32:32-p271:32:32-p272:64:64-i64:64-i128:128-f80:128-n8:16:32:64-S128"
target triple = "x86_64-pc-linux-gnu"

%struct.AVFormatContext = type { ptr, ptr, ptr, ptr, ptr, i32, i32, ptr, i32, ptr, i32, ptr, ptr, i64, i64, i64, i32, i32, i32, i64, i64, ptr, i32, i32, ptr, i32, i32, i32, i32, ptr, i64, i32, i32, %struct.AVIOInterruptCB, i32, i32, i32, i32, i64, i32, i32, i32, i32, i32, i32, i32, i32, i32, i32, i32, i32, i64, i32, i32, i32, i32, i32, ptr, ptr, ptr, ptr, i32, ptr, ptr, ptr, ptr, i32, ptr, ptr, i64, ptr, ptr, ptr, i64 }
%struct.AVIOInterruptCB = type { ptr, ptr }
%struct.SegmentContext = type { ptr, i32, i32, i32, i32, ptr, ptr, ptr, ptr, ptr, i32, i32, i32, i32, i64, i64, i64, i32, i32, ptr, i32, ptr, i64, i64, i32, i32, ptr, ptr, i32, ptr, ptr, i32, i32, i32, i64, i32, i32, ptr, i32, i64, ptr, i32, i64, i32, i32, i32, [1024 x i8], %struct.SegmentListEntry, ptr, ptr }
%struct.SegmentListEntry = type { i32, double, double, i64, i64, ptr, ptr, i64 }

; Function Attrs: nounwind uwtable
define internal i32 @open_null_ctx(ptr noundef %0) #0 {
  %2 = alloca i32, align 4
  %3 = alloca ptr, align 8
  %4 = alloca i32, align 4
  %5 = alloca ptr, align 8
  %6 = alloca i32, align 4
  store ptr %0, ptr %3, align 8, !tbaa !149
  call void @llvm.lifetime.start.p0(i64 4, ptr %4) #12
  store i32 32768, ptr %4, align 4, !tbaa !36
  call void @llvm.lifetime.start.p0(i64 8, ptr %5) #12
  %7 = load i32, ptr %4, align 4, !tbaa !36
  %8 = sext i32 %7 to i64
  %9 = call noalias ptr @av_malloc(i64 noundef %8)
  store ptr %9, ptr %5, align 8, !tbaa !63
  %10 = load ptr, ptr %5, align 8, !tbaa !63
  %11 = icmp ne ptr %10, null
  br i1 %11, label %13, label %12

12:                                               ; preds = %1
  store i32 -12, ptr %2, align 4
  store i32 1, ptr %6, align 4
  br label %24

13:                                               ; preds = %1
  %14 = load ptr, ptr %5, align 8, !tbaa !63
  %15 = load i32, ptr %4, align 4, !tbaa !36
  %16 = call ptr @avio_alloc_context(ptr noundef %14, i32 noundef %15, i32 noundef 1, ptr noundef null, ptr noundef null, ptr noundef null, ptr noundef null)
  %17 = load ptr, ptr %3, align 8, !tbaa !149
  store ptr %16, ptr %17, align 8, !tbaa !151
  %18 = load ptr, ptr %3, align 8, !tbaa !149
  %19 = load ptr, ptr %18, align 8, !tbaa !151
  %20 = icmp ne ptr %19, null
  br i1 %20, label %23, label %21

21:                                               ; preds = %13
  %22 = load ptr, ptr %5, align 8, !tbaa !63
  call void @av_free(ptr noundef %22)
  store i32 -12, ptr %2, align 4
  store i32 1, ptr %6, align 4
  br label %24

23:                                               ; preds = %13
  store i32 0, ptr %2, align 4
  store i32 1, ptr %6, align 4
  br label %24

24:                                               ; preds = %23, %21, %12
  call void @llvm.lifetime.end.p0(i64 8, ptr %5) #12
  call void @llvm.lifetime.end.p0(i64 4, ptr %4) #12
  %25 = load i32, ptr %2, align 4
  ret i32 %25
}

; Function Attrs: nounwind uwtable
define internal i32 @seg_write_trailer(ptr noundef %0) #0 {
  %2 = alloca i32, align 4
  %3 = alloca ptr, align 8
  %4 = alloca ptr, align 8
  %5 = alloca ptr, align 8
  %6 = alloca i32, align 4
  %7 = alloca i32, align 4
  store ptr %0, ptr %3, align 8, !tbaa !4
  call void @llvm.lifetime.start.p0(i64 8, ptr %4) #12
  %8 = load ptr, ptr %3, align 8, !tbaa !4
  %9 = getelementptr inbounds nuw %struct.AVFormatContext, ptr %8, i32 0, i32 3
  %10 = load ptr, ptr %9, align 8, !tbaa !9
  store ptr %10, ptr %4, align 8, !tbaa !26
  call void @llvm.lifetime.start.p0(i64 8, ptr %5) #12
  %11 = load ptr, ptr %4, align 8, !tbaa !26
  %12 = getelementptr inbounds nuw %struct.SegmentContext, ptr %11, i32 0, i32 6
  %13 = load ptr, ptr %12, align 8, !tbaa !28
  store ptr %13, ptr %5, align 8, !tbaa !4
  call void @llvm.lifetime.start.p0(i64 4, ptr %6) #12
  %14 = load ptr, ptr %5, align 8, !tbaa !4
  %15 = icmp ne ptr %14, null
  br i1 %15, label %17, label %16

16:                                               ; preds = %1
  store i32 0, ptr %2, align 4
  store i32 1, ptr %7, align 4
  br label %45

17:                                               ; preds = %1
  %18 = load ptr, ptr %4, align 8, !tbaa !26
  %19 = getelementptr inbounds nuw %struct.SegmentContext, ptr %18, i32 0, i32 36
  %20 = load i32, ptr %19, align 4, !tbaa !37
  %21 = icmp ne i32 %20, 0
  br i1 %21, label %40, label %22

22:                                               ; preds = %17
  %23 = load ptr, ptr %3, align 8, !tbaa !4
  %24 = call i32 @segment_end(ptr noundef %23, i32 noundef 0, i32 noundef 1)
  store i32 %24, ptr %6, align 4, !tbaa !36
  %25 = icmp slt i32 %24, 0
  br i1 %25, label %26, label %28

26:                                               ; preds = %22
  %27 = load i32, ptr %6, align 4, !tbaa !36
  store i32 %27, ptr %2, align 4
  store i32 1, ptr %7, align 4
  br label %45

28:                                               ; preds = %22
  %29 = load ptr, ptr %5, align 8, !tbaa !4
  %30 = getelementptr inbounds nuw %struct.AVFormatContext, ptr %29, i32 0, i32 4
  %31 = call i32 @open_null_ctx(ptr noundef %30)
  store i32 %31, ptr %6, align 4, !tbaa !36
  %32 = icmp slt i32 %31, 0
  br i1 %32, label %33, label %35

33:                                               ; preds = %28
  %34 = load i32, ptr %6, align 4, !tbaa !36
  store i32 %34, ptr %2, align 4
  store i32 1, ptr %7, align 4
  br label %45

35:                                               ; preds = %28
  %36 = load ptr, ptr %4, align 8, !tbaa !26
  %37 = getelementptr inbounds nuw %struct.SegmentContext, ptr %36, i32 0, i32 12
  store i32 1, ptr %37, align 8, !tbaa !39
  %38 = load ptr, ptr %5, align 8, !tbaa !4
  %39 = call i32 @av_write_trailer(ptr noundef %38)
  store i32 %39, ptr %6, align 4, !tbaa !36
  br label %43

40:                                               ; preds = %17
  %41 = load ptr, ptr %3, align 8, !tbaa !4
  %42 = call i32 @segment_end(ptr noundef %41, i32 noundef 1, i32 noundef 1)
  store i32 %42, ptr %6, align 4, !tbaa !36
  br label %43

43:                                               ; preds = %40, %35
  %44 = load i32, ptr %6, align 4, !tbaa !36
  store i32 %44, ptr %2, align 4
  store i32 1, ptr %7, align 4
  br label %45

45:                                               ; preds = %43, %33, %26, %16
  call void @llvm.lifetime.end.p0(i64 4, ptr %6) #12
  call void @llvm.lifetime.end.p0(i64 8, ptr %5) #12
  call void @llvm.lifetime.end.p0(i64 8, ptr %4) #12
  %46 = load i32, ptr %2, align 4
  ret i32 %46
}