; Function Attrs: nounwind uwtable
define internal i32 @seg_write_trailer(ptr noundef %0) #0 {
  %2 = getelementptr inbounds nuw i8, ptr %0, i64 24
  %3 = load ptr, ptr %2, align 8, !tbaa !4
  %4 = getelementptr inbounds nuw i8, ptr %3, i64 32
  %5 = load ptr, ptr %4, align 8, !tbaa !24
  %.not = icmp eq ptr %5, null
  br i1 %.not, label %open_null_ctx.exit.thread, label %6

6:                                                ; preds = %1
  %7 = getelementptr inbounds nuw i8, ptr %3, i64 228
  %8 = load i32, ptr %7, align 4, !tbaa !33
  %.not16 = icmp eq i32 %8, 0
  br i1 %.not16, label %9, label %20

9:                                                ; preds = %6
  %10 = tail call fastcc i32 @segment_end(ptr noundef nonnull %0, i32 noundef 0, i32 noundef 1)
  %11 = icmp slt i32 %10, 0
  br i1 %11, label %open_null_ctx.exit.thread, label %12

12:                                               ; preds = %9
  %13 = tail call noalias ptr @av_malloc(i64 noundef 32768) #13
  %.not.i = icmp eq ptr %13, null
  br i1 %.not.i, label %open_null_ctx.exit.thread, label %14

14:                                               ; preds = %12
  %15 = getelementptr inbounds nuw i8, ptr %5, i64 32
  %16 = tail call ptr @avio_alloc_context(ptr noundef nonnull %13, i32 noundef 32768, i32 noundef 1, ptr noundef null, ptr noundef null, ptr noundef null, ptr noundef null) #13
  store ptr %16, ptr %15, align 8, !tbaa !35
  %.not8.i = icmp eq ptr %16, null
  br i1 %.not8.i, label %17, label %open_null_ctx.exit

17:                                               ; preds = %14
  tail call void @av_free(ptr noundef nonnull %13) #13
  br label %open_null_ctx.exit.thread

open_null_ctx.exit:                               ; preds = %14
  %18 = getelementptr inbounds nuw i8, ptr %3, i64 72
  store i32 1, ptr %18, align 8, !tbaa !36
  %19 = tail call i32 @av_write_trailer(ptr noundef nonnull %5) #13
  br label %open_null_ctx.exit.thread

20:                                               ; preds = %6
  %21 = tail call fastcc i32 @segment_end(ptr noundef nonnull %0, i32 noundef 1, i32 noundef 1)
  br label %open_null_ctx.exit.thread

open_null_ctx.exit.thread:                        ; preds = %12, %17, %open_null_ctx.exit, %20, %9, %1
  %.012 = phi i32 [ 0, %1 ], [ %10, %9 ], [ %21, %20 ], [ %19, %open_null_ctx.exit ], [ -12, %17 ], [ -12, %12 ]
  ret i32 %.012
}